target datalayout = "e-m:e-p270:32:32-p271:32:32-p272:64:64-i64:64-i128:128-f80:128-n8:16:32:64-S128"
target triple = "x86_64-pc-linux-gnu"

%struct._YR_ARENA_PAGE = type { ptr, ptr, i64, i64, ptr, ptr, ptr, ptr }
%struct._YR_ARENA = type { i32, ptr, ptr }

; Function Attrs: nounwind uwtable
define i32 @yr_arena_allocate_memory(ptr noundef %0, i64 noundef %1, ptr noundef %2) #0 {
  %4 = alloca i32, align 4
  %5 = alloca ptr, align 8
  %6 = alloca i64, align 8
  %7 = alloca ptr, align 8
  %8 = alloca i32, align 4
  store ptr %0, ptr %5, align 8
  store i64 %1, ptr %6, align 8
  store ptr %2, ptr %7, align 8
  %9 = load ptr, ptr %5, align 8
  %10 = load i64, ptr %6, align 8
  %11 = call i32 @yr_arena_reserve_memory(ptr noundef %9, i64 noundef %10)
  store i32 %11, ptr %8, align 4
  %12 = load i32, ptr %8, align 4
  %13 = icmp ne i32 %12, 0
  br i1 %13, label %14, label %16

14:                                               ; preds = %3
  %15 = load i32, ptr %8, align 4
  store i32 %15, ptr %4, align 4
  br label %36

16:                                               ; preds = %3
  %17 = load ptr, ptr %5, align 8
  %18 = getelementptr inbounds %struct._YR_ARENA, ptr %17, i32 0, i32 2
  %19 = load ptr, ptr %18, align 8
  %20 = getelementptr inbounds %struct._YR_ARENA_PAGE, ptr %19, i32 0, i32 1
  %21 = load ptr, ptr %20, align 8
  %22 = load ptr, ptr %5, align 8
  %23 = getelementptr inbounds %struct._YR_ARENA, ptr %22, i32 0, i32 2
  %24 = load ptr, ptr %23, align 8
  %25 = getelementptr inbounds %struct._YR_ARENA_PAGE, ptr %24, i32 0, i32 3
  %26 = load i64, ptr %25, align 8
  %27 = getelementptr inbounds i8, ptr %21, i64 %26
  %28 = load ptr, ptr %7, align 8
  store ptr %27, ptr %28, align 8
  %29 = load i64, ptr %6, align 8
  %30 = load ptr, ptr %5, align 8
  %31 = getelementptr inbounds %struct._YR_ARENA, ptr %30, i32 0, i32 2
  %32 = load ptr, ptr %31, align 8
  %33 = getelementptr inbounds %struct._YR_ARENA_PAGE, ptr %32, i32 0, i32 3
  %34 = load i64, ptr %33, align 8
  %35 = add i64 %34, %29
  store i64 %35, ptr %33, align 8
  store i32 0, ptr %4, align 4
  br label %36

36:                                               ; preds = %16, %14
  %37 = load i32, ptr %4, align 4
  ret i32 %37
}

; Function Attrs: nounwind uwtable
define i32 @yr_arena_write_data(ptr noundef %0, ptr noundef %1, i64 noundef %2, ptr noundef %3) #0 {
  %5 = alloca i32, align 4
  %6 = alloca ptr, align 8
  %7 = alloca ptr, align 8
  %8 = alloca i64, align 8
  %9 = alloca ptr, align 8
  %10 = alloca ptr, align 8
  %11 = alloca i32, align 4
  store ptr %0, ptr %6, align 8
  store ptr %1, ptr %7, align 8
  store i64 %2, ptr %8, align 8
  store ptr %3, ptr %9, align 8
  %12 = load i64, ptr %8, align 8
  %13 = load ptr, ptr %6, align 8
  %14 = getelementptr inbounds %struct._YR_ARENA, ptr %13, i32 0, i32 2
  %15 = load ptr, ptr %14, align 8
  %16 = getelementptr inbounds %struct._YR_ARENA_PAGE, ptr %15, i32 0, i32 2
  %17 = load i64, ptr %16, align 8
  %18 = load ptr, ptr %6, align 8
  %19 = getelementptr inbounds %struct._YR_ARENA, ptr %18, i32 0, i32 2
  %20 = load ptr, ptr %19, align 8
  %21 = getelementptr inbounds %struct._YR_ARENA_PAGE, ptr %20, i32 0, i32 3
  %22 = load i64, ptr %21, align 8
  %23 = sub i64 %17, %22
  %24 = icmp ugt i64 %12, %23
  br i1 %24, label %25, label %34

25:                                               ; preds = %4
  %26 = load ptr, ptr %6, align 8
  %27 = load i64, ptr %8, align 8
  %28 = call i32 @yr_arena_allocate_memory(ptr noundef %26, i64 noundef %27, ptr noundef %10)
  store i32 %28, ptr %11, align 4
  %29 = load i32, ptr %11, align 4
  %30 = icmp ne i32 %29, 0
  br i1 %30, label %31, label %33

31:                                               ; preds = %25
  %32 = load i32, ptr %11, align 4
  store i32 %32, ptr %5, align 4
  br label %63

33:                                               ; preds = %25
  br label %53

34:                                               ; preds = %4
  %35 = load ptr, ptr %6, align 8
  %36 = getelementptr inbounds %struct._YR_ARENA, ptr %35, i32 0, i32 2
  %37 = load ptr, ptr %36, align 8
  %38 = getelementptr inbounds %struct._YR_ARENA_PAGE, ptr %37, i32 0, i32 1
  %39 = load ptr, ptr %38, align 8
  %40 = load ptr, ptr %6, align 8
  %41 = getelementptr inbounds %struct._YR_ARENA, ptr %40, i32 0, i32 2
  %42 = load ptr, ptr %41, align 8
  %43 = getelementptr inbounds %struct._YR_ARENA_PAGE, ptr %42, i32 0, i32 3
  %44 = load i64, ptr %43, align 8
  %45 = getelementptr inbounds i8, ptr %39, i64 %44
  store ptr %45, ptr %10, align 8
  %46 = load i64, ptr %8, align 8
  %47 = load ptr, ptr %6, align 8
  %48 = getelementptr inbounds %struct._YR_ARENA, ptr %47, i32 0, i32 2
  %49 = load ptr, ptr %48, align 8
  %50 = getelementptr inbounds %struct._YR_ARENA_PAGE, ptr %49, i32 0, i32 3
  %51 = load i64, ptr %50, align 8
  %52 = add i64 %51, %46
  store i64 %52, ptr %50, align 8
  br label %53

53:                                               ; preds = %34, %33
  %54 = load ptr, ptr %10, align 8
  %55 = load ptr, ptr %7, align 8
  %56 = load i64, ptr %8, align 8
  call void @llvm.memcpy.p0.p0.i64(ptr align 1 %54, ptr align 1 %55, i64 %56, i1 false)
  %57 = load ptr, ptr %9, align 8
  %58 = icmp ne ptr %57, null
  br i1 %58, label %59, label %62

59:                                               ; preds = %53
  %60 = load ptr, ptr %10, align 8
  %61 = load ptr, ptr %9, align 8
  store ptr %60, ptr %61, align 8
  br label %62

62:                                               ; preds = %59, %53
  store i32 0, ptr %5, align 4
  br label %63

63:                                               ; preds = %62, %31
  %64 = load i32, ptr %5, align 4
  ret i32 %64
}

; Function Attrs: nounwind uwtable
define i32 @yr_arena_write_string(ptr noundef %0, ptr noundef %1, ptr noundef %2) #0 {
  %4 = alloca ptr, align 8
  %5 = alloca ptr, align 8
  %6 = alloca ptr, align 8
  store ptr %0, ptr %4, align 8
  store ptr %1, ptr %5, align 8
  store ptr %2, ptr %6, align 8
  %7 = load ptr, ptr %4, align 8
  %8 = load ptr, ptr %5, align 8
  %9 = load ptr, ptr %5, align 8
  %10 = call i64 @strlen(ptr noundef %9) #10
  %11 = add i64 %10, 1
  %12 = load ptr, ptr %6, align 8
  %13 = call i32 @yr_arena_write_data(ptr noundef %7, ptr noundef %8, i64 noundef %11, ptr noundef %12)
  ret i32 %13
}