; Function Attrs: nounwind uwtable
define noundef i32 @yr_arena_write_string(ptr nocapture noundef %0, ptr nocapture noundef readonly %1, ptr noundef writeonly %2) local_unnamed_addr #0 {
  %4 = tail call i64 @strlen(ptr noundef nonnull dereferenceable(1) %1) #13
  %5 = add i64 %4, 1
  %6 = getelementptr inbounds i8, ptr %0, i64 16
  %7 = load ptr, ptr %6, align 8
  %8 = getelementptr inbounds i8, ptr %7, i64 16
  %9 = load i64, ptr %8, align 8
  %10 = getelementptr inbounds i8, ptr %7, i64 24
  %11 = load i64, ptr %10, align 8
  %12 = sub i64 %9, %11
  %13 = icmp ult i64 %12, %5
  br i1 %13, label %14, label %22

14:                                               ; preds = %3
  %15 = tail call i32 @yr_arena_reserve_memory(ptr noundef nonnull %0, i64 noundef %5), !range !4
  %.not.i.i = icmp eq i32 %15, 0
  br i1 %.not.i.i, label %yr_arena_allocate_memory.exit.thread.i, label %yr_arena_write_data.exit

yr_arena_allocate_memory.exit.thread.i:           ; preds = %14
  %16 = load ptr, ptr %6, align 8
  %17 = getelementptr inbounds i8, ptr %16, i64 8
  %18 = load ptr, ptr %17, align 8
  %19 = getelementptr inbounds i8, ptr %16, i64 24
  %20 = load i64, ptr %19, align 8
  %21 = getelementptr inbounds i8, ptr %18, i64 %20
  br label %26

22:                                               ; preds = %3
  %23 = getelementptr inbounds i8, ptr %7, i64 8
  %24 = load ptr, ptr %23, align 8
  %25 = getelementptr inbounds i8, ptr %24, i64 %11
  br label %26

26:                                               ; preds = %22, %yr_arena_allocate_memory.exit.thread.i
  %.sink25.i = phi i64 [ %20, %yr_arena_allocate_memory.exit.thread.i ], [ %11, %22 ]
  %.sink24.i = phi ptr [ %19, %yr_arena_allocate_memory.exit.thread.i ], [ %10, %22 ]
  %.1.i = phi ptr [ %21, %yr_arena_allocate_memory.exit.thread.i ], [ %25, %22 ]
  %27 = add i64 %.sink25.i, %5
  store i64 %27, ptr %.sink24.i, align 8
  tail call void @llvm.memcpy.p0.p0.i64(ptr align 1 %.1.i, ptr align 1 %1, i64 %5, i1 false)
  %.not18.i = icmp eq ptr %2, null
  br i1 %.not18.i, label %yr_arena_write_data.exit, label %28

28:                                               ; preds = %26
  store ptr %.1.i, ptr %2, align 8
  br label %yr_arena_write_data.exit

yr_arena_write_data.exit:                         ; preds = %14, %26, %28
  %.0.i = phi i32 [ 0, %28 ], [ 0, %26 ], [ 1, %14 ]
  ret i32 %.0.i
}